target datalayout = "e-m:e-p270:32:32-p271:32:32-p272:64:64-i64:64-i128:128-f80:128-n8:16:32:64-S128"
target triple = "x86_64-pc-linux-gnu"

%struct.conf_method_st = type { ptr, ptr, ptr, ptr, ptr, ptr, ptr, ptr, ptr, ptr }
%struct.conf_st = type { ptr, ptr, ptr, i32, i32, ptr, ptr }

@default_CONF_method = internal global ptr null, align 8

; Function Attrs: nounwind uwtable
define void @CONF_set_nconf(ptr noundef %0, ptr noundef %1) #0 {
  %3 = alloca ptr, align 8
  %4 = alloca ptr, align 8
  store ptr %0, ptr %3, align 8, !tbaa !3
  store ptr %1, ptr %4, align 8, !tbaa !8
  %5 = load ptr, ptr @default_CONF_method, align 8, !tbaa !10
  %6 = icmp eq ptr %5, null
  br i1 %6, label %7, label %9

7:                                                ; preds = %2
  %8 = call ptr @NCONF_default()
  store ptr %8, ptr @default_CONF_method, align 8, !tbaa !10
  br label %9

9:                                                ; preds = %7, %2
  %10 = load ptr, ptr @default_CONF_method, align 8, !tbaa !10
  %11 = getelementptr inbounds nuw %struct.conf_method_st, ptr %10, i32 0, i32 2
  %12 = load ptr, ptr %11, align 8, !tbaa !12
  %13 = load ptr, ptr %3, align 8, !tbaa !3
  %14 = call i32 %12(ptr noundef %13)
  %15 = load ptr, ptr %4, align 8, !tbaa !8
  %16 = load ptr, ptr %3, align 8, !tbaa !3
  %17 = getelementptr inbounds nuw %struct.conf_st, ptr %16, i32 0, i32 2
  store ptr %15, ptr %17, align 8, !tbaa !15
  ret void
}

; Function Attrs: nounwind uwtable
define i64 @CONF_get_number(ptr noundef %0, ptr noundef %1, ptr noundef %2) #0 {
  %4 = alloca ptr, align 8
  %5 = alloca ptr, align 8
  %6 = alloca ptr, align 8
  %7 = alloca i32, align 4
  %8 = alloca i64, align 8
  %9 = alloca %struct.conf_st, align 8
  store ptr %0, ptr %4, align 8, !tbaa !8
  store ptr %1, ptr %5, align 8, !tbaa !19
  store ptr %2, ptr %6, align 8, !tbaa !19
  call void @llvm.lifetime.start.p0(i64 4, ptr %7) #8
  call void @llvm.lifetime.start.p0(i64 8, ptr %8) #8
  store i64 0, ptr %8, align 8, !tbaa !29
  %10 = call i32 @ERR_set_mark()
  %11 = load ptr, ptr %4, align 8, !tbaa !8
  %12 = icmp eq ptr %11, null
  br i1 %12, label %13, label %17

13:                                               ; preds = %3
  %14 = load ptr, ptr %5, align 8, !tbaa !19
  %15 = load ptr, ptr %6, align 8, !tbaa !19
  %16 = call i32 @NCONF_get_number_e(ptr noundef null, ptr noundef %14, ptr noundef %15, ptr noundef %8)
  store i32 %16, ptr %7, align 4, !tbaa !24
  br label %22

17:                                               ; preds = %3
  call void @llvm.lifetime.start.p0(i64 48, ptr %9) #8
  %18 = load ptr, ptr %4, align 8, !tbaa !8
  call void @CONF_set_nconf(ptr noundef %9, ptr noundef %18)
  %19 = load ptr, ptr %5, align 8, !tbaa !19
  %20 = load ptr, ptr %6, align 8, !tbaa !19
  %21 = call i32 @NCONF_get_number_e(ptr noundef %9, ptr noundef %19, ptr noundef %20, ptr noundef %8)
  store i32 %21, ptr %7, align 4, !tbaa !24
  call void @llvm.lifetime.end.p0(i64 48, ptr %9) #8
  br label %22

22:                                               ; preds = %17, %13
  %23 = call i32 @ERR_pop_to_mark()
  %24 = load i32, ptr %7, align 4, !tbaa !24
  %25 = icmp eq i32 %24, 0
  br i1 %25, label %26, label %27

26:                                               ; preds = %22
  br label %29

27:                                               ; preds = %22
  %28 = load i64, ptr %8, align 8, !tbaa !29
  br label %29

29:                                               ; preds = %27, %26
  %30 = phi i64 [ 0, %26 ], [ %28, %27 ]
  call void @llvm.lifetime.end.p0(i64 8, ptr %8) #8
  call void @llvm.lifetime.end.p0(i64 4, ptr %7) #8
  ret i64 %30
}