; Function Attrs: nounwind uwtable
define i64 @CONF_get_number(ptr noundef %0, ptr noundef %1, ptr noundef %2) local_unnamed_addr #0 {
  %4 = alloca i64, align 8
  %5 = alloca %struct.conf_st, align 8
  call void @llvm.lifetime.start.p0(i64 8, ptr nonnull %4) #15
  store i64 0, ptr %4, align 8, !tbaa !18
  %6 = tail call i32 @ERR_set_mark() #15
  %7 = icmp eq ptr %0, null
  br i1 %7, label %8, label %27

8:                                                ; preds = %3
  %9 = tail call ptr @_CONF_get_string(ptr noundef null, ptr noundef %1, ptr noundef %2) #15
  %.not.i.i = icmp eq ptr %9, null
  br i1 %.not.i.i, label %10, label %NCONF_get_string.exit.i

10:                                               ; preds = %8
  tail call void @ERR_new() #15
  tail call void @ERR_set_debug(ptr noundef nonnull @.str.1, i32 noundef 313, ptr noundef nonnull @__func__.NCONF_get_string) #15
  br label %NCONF_get_number_e.exit.thread

NCONF_get_string.exit.i:                          ; preds = %8
  %11 = load i8, ptr %9, align 1, !tbaa !20
  %12 = sext i8 %11 to i32
  %13 = tail call i32 @ossl_isdigit(i32 noundef %12) #15
  %.not3843.i = icmp eq i32 %13, 0
  br i1 %.not3843.i, label %NCONF_get_number_e.exit.thread9, label %.lr.ph.i

.lr.ph.i:                                         ; preds = %NCONF_get_string.exit.i, %18
  %.02845.i = phi i64 [ %21, %18 ], [ 0, %NCONF_get_string.exit.i ]
  %.03044.i = phi ptr [ %22, %18 ], [ %9, %NCONF_get_string.exit.i ]
  %14 = load i8, ptr %.03044.i, align 1, !tbaa !20
  %15 = sext i8 %14 to i64
  %16 = sub i64 -9223372036854775761, %15
  %17 = udiv i64 %16, 10
  %.not39.i = icmp sgt i64 %.02845.i, %17
  br i1 %.not39.i, label %.thread.i, label %18

.thread.i:                                        ; preds = %.lr.ph.i
  tail call void @ERR_new() #15
  tail call void @ERR_set_debug(ptr noundef nonnull @.str.1, i32 noundef 359, ptr noundef nonnull @__func__.NCONF_get_number_e) #15
  br label %NCONF_get_number_e.exit.thread

18:                                               ; preds = %.lr.ph.i
  %19 = mul nsw i64 %.02845.i, 10
  %20 = add i64 %19, -48
  %21 = add i64 %20, %15
  %22 = getelementptr inbounds nuw i8, ptr %.03044.i, i64 1
  %23 = load i8, ptr %22, align 1, !tbaa !20
  %24 = sext i8 %23 to i32
  %25 = tail call i32 @ossl_isdigit(i32 noundef %24) #15
  %.not38.i = icmp eq i32 %25, 0
  br i1 %.not38.i, label %NCONF_get_number_e.exit.thread9, label %.lr.ph.i, !llvm.loop !21

NCONF_get_number_e.exit.thread9:                  ; preds = %18, %NCONF_get_string.exit.i
  %.028.lcssa.i = phi i64 [ 0, %NCONF_get_string.exit.i ], [ %21, %18 ]
  %26 = tail call i32 @ERR_pop_to_mark() #15
  br label %43

27:                                               ; preds = %3
  call void @llvm.lifetime.start.p0(i64 48, ptr nonnull %5) #15
  %28 = load ptr, ptr @default_CONF_method, align 8, !tbaa !3
  %29 = icmp eq ptr %28, null
  br i1 %29, label %30, label %NCONF_get_number_e.exit

30:                                               ; preds = %27
  %31 = tail call ptr @NCONF_default() #15
  store ptr %31, ptr @default_CONF_method, align 8, !tbaa !3
  br label %NCONF_get_number_e.exit

NCONF_get_number_e.exit.thread:                   ; preds = %.thread.i, %10
  %.sink = phi i32 [ 121, %.thread.i ], [ 106, %10 ]
  tail call void (i32, i32, ptr, ...) @ERR_set_error(i32 noundef 14, i32 noundef %.sink, ptr noundef null) #15
  %32 = tail call i32 @ERR_pop_to_mark() #15
  br label %42

NCONF_get_number_e.exit:                          ; preds = %30, %27
  %33 = phi ptr [ %31, %30 ], [ %28, %27 ]
  %34 = getelementptr inbounds nuw i8, ptr %33, i64 16
  %35 = load ptr, ptr %34, align 8, !tbaa !8
  %36 = call i32 %35(ptr noundef nonnull %5) #15
  %37 = getelementptr inbounds nuw i8, ptr %5, i64 16
  store ptr %0, ptr %37, align 8, !tbaa !11
  %38 = call i32 @NCONF_get_number_e(ptr noundef nonnull %5, ptr noundef %1, ptr noundef %2, ptr noundef nonnull %4)
  call void @llvm.lifetime.end.p0(i64 48, ptr nonnull %5) #15
  %39 = call i32 @ERR_pop_to_mark() #15
  %.fr = freeze i32 %38
  %40 = icmp eq i32 %.fr, 0
  %41 = load i64, ptr %4, align 8
  br i1 %40, label %42, label %43

42:                                               ; preds = %NCONF_get_number_e.exit.thread, %NCONF_get_number_e.exit
  br label %43

43:                                               ; preds = %NCONF_get_number_e.exit.thread9, %NCONF_get_number_e.exit, %42
  %44 = phi i64 [ 0, %42 ], [ %41, %NCONF_get_number_e.exit ], [ %.028.lcssa.i, %NCONF_get_number_e.exit.thread9 ]
  call void @llvm.lifetime.end.p0(i64 8, ptr nonnull %4) #15
  ret i64 %44
}